target datalayout = "e-m:e-p270:32:32-p271:32:32-p272:64:64-i64:64-i128:128-f80:128-n8:16:32:64-S128"
target triple = "x86_64-pc-linux-gnu"

%struct.malloc_state = type { i32, i32, i64, i64, ptr, ptr, ptr, i64, i64, i64, [66 x ptr], [32 x ptr], i64, i64, i64, i32, i32, %struct.malloc_segment, ptr, i64 }
%struct.malloc_segment = type { ptr, i64, ptr, i32 }
%struct.malloc_chunk = type { i64, i64, ptr, ptr }

@_gm_ = internal global %struct.malloc_state zeroinitializer, align 8
@s_allocated_memory = internal global i64 0, align 8

; Function Attrs: nounwind uwtable
define internal i32 @spin_acquire_lock(ptr noundef %0) #0 {
  %2 = alloca ptr, align 8
  %3 = alloca i32, align 4
  store ptr %0, ptr %2, align 8, !tbaa !16
  call void @llvm.lifetime.start.p0(i64 4, ptr %3) #9
  store i32 0, ptr %3, align 4, !tbaa !14
  br label %4

4:                                                ; preds = %21, %1
  %5 = load ptr, ptr %2, align 8, !tbaa !16
  %6 = load volatile i32, ptr %5, align 4, !tbaa !14
  %7 = icmp ne i32 %6, 0
  br i1 %7, label %12, label %8

8:                                                ; preds = %4
  %9 = load ptr, ptr %2, align 8, !tbaa !16
  %10 = atomicrmw xchg ptr %9, i32 1 seq_cst, align 4
  %11 = icmp ne i32 %10, 0
  br label %12

12:                                               ; preds = %8, %4
  %13 = phi i1 [ true, %4 ], [ %11, %8 ]
  br i1 %13, label %14, label %22

14:                                               ; preds = %12
  %15 = load i32, ptr %3, align 4, !tbaa !14
  %16 = add nsw i32 %15, 1
  store i32 %16, ptr %3, align 4, !tbaa !14
  %17 = and i32 %16, 63
  %18 = icmp eq i32 %17, 0
  br i1 %18, label %19, label %21

19:                                               ; preds = %14
  %20 = call i32 @sched_yield() #9
  br label %21

21:                                               ; preds = %19, %14
  br label %4, !llvm.loop !34

22:                                               ; preds = %12
  call void @llvm.lifetime.end.p0(i64 4, ptr %3) #9
  ret i32 0
}

; Function Attrs: nounwind uwtable
define hidden void @boost_cont_free(ptr noundef %0) #0 {
  %2 = alloca ptr, align 8
  %3 = alloca ptr, align 8
  store ptr %0, ptr %2, align 8, !tbaa !16
  call void @llvm.lifetime.start.p0(i64 8, ptr %3) #9
  store ptr @_gm_, ptr %3, align 8, !tbaa !16
  %4 = load ptr, ptr %3, align 8, !tbaa !16
  %5 = getelementptr inbounds nuw %struct.malloc_state, ptr %4, i32 0, i32 15
  %6 = load i32, ptr %5, align 8, !tbaa !10
  %7 = and i32 %6, 2
  %8 = icmp ne i32 %7, 0
  br i1 %8, label %9, label %20

9:                                                ; preds = %1
  %10 = load ptr, ptr %3, align 8, !tbaa !16
  %11 = getelementptr inbounds nuw %struct.malloc_state, ptr %10, i32 0, i32 16
  %12 = atomicrmw xchg ptr %11, i32 1 seq_cst, align 4
  %13 = icmp ne i32 %12, 0
  br i1 %13, label %14, label %19

14:                                               ; preds = %9
  %15 = load ptr, ptr %3, align 8, !tbaa !16
  %16 = getelementptr inbounds nuw %struct.malloc_state, ptr %15, i32 0, i32 16
  %17 = call i32 @spin_acquire_lock(ptr noundef %16)
  %18 = icmp ne i32 %17, 0
  br i1 %18, label %44, label %21

19:                                               ; preds = %9
  br i1 false, label %44, label %21

20:                                               ; preds = %1
  br i1 false, label %44, label %21

21:                                               ; preds = %20, %19, %14
  %22 = load ptr, ptr %2, align 8, !tbaa !16
  %23 = icmp ne ptr %22, null
  br i1 %23, label %24, label %32

24:                                               ; preds = %21
  %25 = load ptr, ptr %2, align 8, !tbaa !16
  %26 = getelementptr inbounds i8, ptr %25, i64 -16
  %27 = getelementptr inbounds nuw %struct.malloc_chunk, ptr %26, i32 0, i32 1
  %28 = load i64, ptr %27, align 8, !tbaa !21
  %29 = and i64 %28, -8
  %30 = load i64, ptr @s_allocated_memory, align 8, !tbaa !3
  %31 = sub i64 %30, %29
  store i64 %31, ptr @s_allocated_memory, align 8, !tbaa !3
  br label %32

32:                                               ; preds = %24, %21
  %33 = load ptr, ptr %3, align 8, !tbaa !16
  %34 = load ptr, ptr %2, align 8, !tbaa !16
  call void @mspace_free_lockless(ptr noundef %33, ptr noundef %34)
  %35 = load ptr, ptr %3, align 8, !tbaa !16
  %36 = getelementptr inbounds nuw %struct.malloc_state, ptr %35, i32 0, i32 15
  %37 = load i32, ptr %36, align 8, !tbaa !10
  %38 = and i32 %37, 2
  %39 = icmp ne i32 %38, 0
  br i1 %39, label %40, label %43

40:                                               ; preds = %32
  %41 = load ptr, ptr %3, align 8, !tbaa !16
  %42 = getelementptr inbounds nuw %struct.malloc_state, ptr %41, i32 0, i32 16
  store atomic i32 0, ptr %42 release, align 4
  br label %43

43:                                               ; preds = %40, %32
  br label %44

44:                                               ; preds = %43, %20, %19, %14
  call void @llvm.lifetime.end.p0(i64 8, ptr %3) #9
  ret void
}