; Function Attrs: nounwind uwtable
define hidden void @boost_cont_free(ptr noundef %0) local_unnamed_addr #0 {
  %2 = load i32, ptr getelementptr inbounds nuw (i8, ptr @_gm_, i64 880), align 8, !tbaa !9
  %3 = and i32 %2, 2
  %.not = icmp eq i32 %3, 0
  br i1 %.not, label %spin_acquire_lock.exit, label %4

4:                                                ; preds = %1
  %5 = atomicrmw xchg ptr getelementptr inbounds nuw (i8, ptr @_gm_, i64 884), i32 1 seq_cst, align 4
  %.not11 = icmp eq i32 %5, 0
  br i1 %.not11, label %spin_acquire_lock.exit, label %.preheader

.preheader:                                       ; preds = %4, %.preheader.backedge
  %.0.i = phi i32 [ %9, %.preheader.backedge ], [ 0, %4 ]
  %6 = load volatile i32, ptr getelementptr inbounds nuw (i8, ptr @_gm_, i64 884), align 4, !tbaa !13
  %.not.i = icmp eq i32 %6, 0
  br i1 %.not.i, label %7, label %.critedge.i

7:                                                ; preds = %.preheader
  %8 = atomicrmw xchg ptr getelementptr inbounds nuw (i8, ptr @_gm_, i64 884), i32 1 seq_cst, align 4
  %.not2.i = icmp eq i32 %8, 0
  br i1 %.not2.i, label %spin_acquire_lock.exit, label %.critedge.i

.critedge.i:                                      ; preds = %7, %.preheader
  %9 = add nuw nsw i32 %.0.i, 1
  %10 = and i32 %9, 63
  %11 = icmp eq i32 %10, 0
  br i1 %11, label %12, label %.preheader.backedge

12:                                               ; preds = %.critedge.i
  %13 = tail call i32 @sched_yield() #17
  br label %.preheader.backedge

.preheader.backedge:                              ; preds = %12, %.critedge.i
  br label %.preheader, !llvm.loop !14

spin_acquire_lock.exit:                           ; preds = %7, %1, %4
  %.not12 = icmp eq ptr %0, null
  br i1 %.not12, label %.split, label %.split10

.split10:                                         ; preds = %spin_acquire_lock.exit
  %14 = getelementptr inbounds i8, ptr %0, i64 -8
  %15 = load i64, ptr %14, align 8, !tbaa !23
  %16 = and i64 %15, -8
  %17 = load i64, ptr @s_allocated_memory, align 8, !tbaa !36
  %18 = sub i64 %17, %16
  store i64 %18, ptr @s_allocated_memory, align 8, !tbaa !36
  tail call fastcc void @mspace_free_lockless(ptr noundef nonnull %0)
  br label %.split

.split:                                           ; preds = %spin_acquire_lock.exit, %.split10
  %19 = load i32, ptr getelementptr inbounds nuw (i8, ptr @_gm_, i64 880), align 8, !tbaa !9
  %20 = and i32 %19, 2
  %.not13 = icmp eq i32 %20, 0
  br i1 %.not13, label %22, label %21

21:                                               ; preds = %.split
  store atomic i32 0, ptr getelementptr inbounds nuw (i8, ptr @_gm_, i64 884) release, align 4
  br label %22

22:                                               ; preds = %.split, %21
  ret void
}